; Function Attrs: mustprogress nounwind willreturn uwtable
define void @Msat_IntVecGrow(ptr noundef captures(none) %0, i32 noundef %1) local_unnamed_addr #5 {
  %3 = getelementptr inbounds nuw i8, ptr %0, i64 12
  %4 = load i32, ptr %3, align 4, !tbaa !10
  %.not = icmp slt i32 %4, %1
  br i1 %.not, label %5, label %15

5:                                                ; preds = %2
  %6 = load ptr, ptr %0, align 8, !tbaa !11
  %.not9 = icmp eq ptr %6, null
  %7 = sext i32 %1 to i64
  %8 = shl nsw i64 %7, 2
  br i1 %.not9, label %11, label %9

9:                                                ; preds = %5
  %10 = tail call ptr @realloc(ptr noundef nonnull %6, i64 noundef %8) #21
  br label %13

11:                                               ; preds = %5
  %12 = tail call noalias ptr @malloc(i64 noundef %8) #19
  br label %13

13:                                               ; preds = %11, %9
  %14 = phi ptr [ %10, %9 ], [ %12, %11 ]
  store ptr %14, ptr %0, align 8, !tbaa !11
  store i32 %1, ptr %3, align 4, !tbaa !10
  br label %15

15:                                               ; preds = %2, %13
  ret void
}